; ModuleID = '2/365.c'
source_filename = "2/365.c"
target datalayout = "e-m:e-p270:32:32-p271:32:32-p272:64:64-i64:64-f80:128-n8:16:32:64-S128"
target triple = "x86_64-pc-linux-gnu"

%struct.book = type { i32, [26 x i8] }

@.str = private unnamed_addr constant [3 x i8] c"%d\00", align 1
@.str.1 = private unnamed_addr constant [3 x i8] c"%s\00", align 1
@.str.2 = private unnamed_addr constant [4 x i8] c"%c\0A\00", align 1
@.str.3 = private unnamed_addr constant [4 x i8] c"%d\0A\00", align 1

; Function Attrs: noinline nounwind uwtable
define dso_local i32 @main() #0 {
  %1 = alloca i32, align 4
  %2 = alloca i32, align 4
  %3 = alloca i32, align 4
  %4 = alloca i32, align 4
  %5 = alloca [26 x i32], align 16
  %6 = alloca [1000 x i32], align 16
  %7 = alloca i32, align 4
  %8 = alloca i32, align 4
  %9 = alloca [1000 x %struct.book], align 16
  store i32 0, i32* %1, align 4
  %10 = bitcast [26 x i32]* %5 to i8*
  call void @llvm.memset.p0i8.i64(i8* align 16 %10, i8 0, i64 104, i1 false)
  store i32 0, i32* %8, align 4
  %11 = call i32 (i8*, ...) @__isoc99_scanf(i8* getelementptr inbounds ([3 x i8], [3 x i8]* @.str, i64 0, i64 0), i32* %2)
  store i32 0, i32* %3, align 4
  br label %12

12:                                               ; preds = %38, %0
  %13 = load i32, i32* %3, align 4
  %14 = load i32, i32* %2, align 4
  %15 = icmp slt i32 %13, %14
  br i1 %15, label %16, label %41

16:                                               ; preds = %12
  %17 = load i32, i32* %3, align 4
  %18 = sext i32 %17 to i64
  %19 = getelementptr inbounds [1000 x %struct.book], [1000 x %struct.book]* %9, i64 0, i64 %18
  %20 = getelementptr inbounds %struct.book, %struct.book* %19, i32 0, i32 0
  %21 = call i32 (i8*, ...) @__isoc99_scanf(i8* getelementptr inbounds ([3 x i8], [3 x i8]* @.str, i64 0, i64 0), i32* %20)
  %22 = load i32, i32* %3, align 4
  %23 = sext i32 %22 to i64
  %24 = getelementptr inbounds [1000 x %struct.book], [1000 x %struct.book]* %9, i64 0, i64 %23
  %25 = getelementptr inbounds %struct.book, %struct.book* %24, i32 0, i32 1
  %26 = getelementptr inbounds [26 x i8], [26 x i8]* %25, i64 0, i64 0
  %27 = call i32 (i8*, ...) @__isoc99_scanf(i8* getelementptr inbounds ([3 x i8], [3 x i8]* @.str.1, i64 0, i64 0), i8* %26)
  %28 = load i32, i32* %3, align 4
  %29 = sext i32 %28 to i64
  %30 = getelementptr inbounds [1000 x %struct.book], [1000 x %struct.book]* %9, i64 0, i64 %29
  %31 = getelementptr inbounds %struct.book, %struct.book* %30, i32 0, i32 1
  %32 = getelementptr inbounds [26 x i8], [26 x i8]* %31, i64 0, i64 0
  %33 = call i64 @strlen(i8* %32) #4
  %34 = trunc i64 %33 to i32
  %35 = load i32, i32* %3, align 4
  %36 = sext i32 %35 to i64
  %37 = getelementptr inbounds [1000 x i32], [1000 x i32]* %6, i64 0, i64 %36
  store i32 %34, i32* %37, align 4
  br label %38

38:                                               ; preds = %16
  %39 = load i32, i32* %3, align 4
  %40 = add nsw i32 %39, 1
  store i32 %40, i32* %3, align 4
  br label %12

41:                                               ; preds = %12
  store i32 0, i32* %3, align 4
  br label %42

42:                                               ; preds = %86, %41
  %43 = load i32, i32* %3, align 4
  %44 = icmp slt i32 %43, 26
  br i1 %44, label %45, label %89

45:                                               ; preds = %42
  store i32 0, i32* %4, align 4
  br label %46

46:                                               ; preds = %82, %45
  %47 = load i32, i32* %4, align 4
  %48 = load i32, i32* %2, align 4
  %49 = icmp slt i32 %47, %48
  br i1 %49, label %50, label %85

50:                                               ; preds = %46
  store i32 0, i32* %7, align 4
  br label %51

51:                                               ; preds = %78, %50
  %52 = load i32, i32* %7, align 4
  %53 = load i32, i32* %4, align 4
  %54 = sext i32 %53 to i64
  %55 = getelementptr inbounds [1000 x i32], [1000 x i32]* %6, i64 0, i64 %54
  %56 = load i32, i32* %55, align 4
  %57 = icmp slt i32 %52, %56
  br i1 %57, label %58, label %81

58:                                               ; preds = %51
  %59 = load i32, i32* %4, align 4
  %60 = sext i32 %59 to i64
  %61 = getelementptr inbounds [1000 x %struct.book], [1000 x %struct.book]* %9, i64 0, i64 %60
  %62 = getelementptr inbounds %struct.book, %struct.book* %61, i32 0, i32 1
  %63 = load i32, i32* %7, align 4
  %64 = sext i32 %63 to i64
  %65 = getelementptr inbounds [26 x i8], [26 x i8]* %62, i64 0, i64 %64
  %66 = load i8, i8* %65, align 1
  %67 = sext i8 %66 to i32
  %68 = load i32, i32* %3, align 4
  %69 = add nsw i32 %68, 65
  %70 = icmp eq i32 %67, %69
  br i1 %70, label %71, label %77

71:                                               ; preds = %58
  %72 = load i32, i32* %3, align 4
  %73 = sext i32 %72 to i64
  %74 = getelementptr inbounds [26 x i32], [26 x i32]* %5, i64 0, i64 %73
  %75 = load i32, i32* %74, align 4
  %76 = add nsw i32 %75, 1
  store i32 %76, i32* %74, align 4
  br label %81

77:                                               ; preds = %58
  br label %78

78:                                               ; preds = %77
  %79 = load i32, i32* %7, align 4
  %80 = add nsw i32 %79, 1
  store i32 %80, i32* %7, align 4
  br label %51

81:                                               ; preds = %71, %51
  br label %82

82:                                               ; preds = %81
  %83 = load i32, i32* %4, align 4
  %84 = add nsw i32 %83, 1
  store i32 %84, i32* %4, align 4
  br label %46

85:                                               ; preds = %46
  br label %86

86:                                               ; preds = %85
  %87 = load i32, i32* %3, align 4
  %88 = add nsw i32 %87, 1
  store i32 %88, i32* %3, align 4
  br label %42

89:                                               ; preds = %42
  store i32 0, i32* %3, align 4
  br label %90

90:                                               ; preds = %107, %89
  %91 = load i32, i32* %3, align 4
  %92 = icmp slt i32 %91, 26
  br i1 %92, label %93, label %110

93:                                               ; preds = %90
  %94 = load i32, i32* %3, align 4
  %95 = sext i32 %94 to i64
  %96 = getelementptr inbounds [26 x i32], [26 x i32]* %5, i64 0, i64 %95
  %97 = load i32, i32* %96, align 4
  %98 = load i32, i32* %8, align 4
  %99 = icmp sgt i32 %97, %98
  br i1 %99, label %100, label %106

100:                                              ; preds = %93
  %101 = load i32, i32* %3, align 4
  %102 = sext i32 %101 to i64
  %103 = getelementptr inbounds [26 x i32], [26 x i32]* %5, i64 0, i64 %102
  %104 = load i32, i32* %103, align 4
  store i32 %104, i32* %8, align 4
  %105 = load i32, i32* %3, align 4
  store i32 %105, i32* %7, align 4
  br label %106

106:                                              ; preds = %100, %93
  br label %107

107:                                              ; preds = %106
  %108 = load i32, i32* %3, align 4
  %109 = add nsw i32 %108, 1
  store i32 %109, i32* %3, align 4
  br label %90

110:                                              ; preds = %90
  %111 = load i32, i32* %7, align 4
  %112 = add nsw i32 %111, 65
  %113 = call i32 (i8*, ...) @printf(i8* getelementptr inbounds ([4 x i8], [4 x i8]* @.str.2, i64 0, i64 0), i32 %112)
  %114 = load i32, i32* %8, align 4
  %115 = call i32 (i8*, ...) @printf(i8* getelementptr inbounds ([4 x i8], [4 x i8]* @.str.3, i64 0, i64 0), i32 %114)
  store i32 0, i32* %3, align 4
  br label %116

116:                                              ; preds = %153, %110
  %117 = load i32, i32* %3, align 4
  %118 = load i32, i32* %2, align 4
  %119 = icmp slt i32 %117, %118
  br i1 %119, label %120, label %156

120:                                              ; preds = %116
  store i32 0, i32* %4, align 4
  br label %121

121:                                              ; preds = %149, %120
  %122 = load i32, i32* %4, align 4
  %123 = load i32, i32* %3, align 4
  %124 = sext i32 %123 to i64
  %125 = getelementptr inbounds [1000 x i32], [1000 x i32]* %6, i64 0, i64 %124
  %126 = load i32, i32* %125, align 4
  %127 = icmp slt i32 %122, %126
  br i1 %127, label %128, label %152

128:                                              ; preds = %121
  %129 = load i32, i32* %3, align 4
  %130 = sext i32 %129 to i64
  %131 = getelementptr inbounds [1000 x %struct.book], [1000 x %struct.book]* %9, i64 0, i64 %130
  %132 = getelementptr inbounds %struct.book, %struct.book* %131, i32 0, i32 1
  %133 = load i32, i32* %4, align 4
  %134 = sext i32 %133 to i64
  %135 = getelementptr inbounds [26 x i8], [26 x i8]* %132, i64 0, i64 %134
  %136 = load i8, i8* %135, align 1
  %137 = sext i8 %136 to i32
  %138 = load i32, i32* %7, align 4
  %139 = add nsw i32 %138, 65
  %140 = icmp eq i32 %137, %139
  br i1 %140, label %141, label %148

141:                                              ; preds = %128
  %142 = load i32, i32* %3, align 4
  %143 = sext i32 %142 to i64
  %144 = getelementptr inbounds [1000 x %struct.book], [1000 x %struct.book]* %9, i64 0, i64 %143
  %145 = getelementptr inbounds %struct.book, %struct.book* %144, i32 0, i32 0
  %146 = load i32, i32* %145, align 16
  %147 = call i32 (i8*, ...) @printf(i8* getelementptr inbounds ([4 x i8], [4 x i8]* @.str.3, i64 0, i64 0), i32 %146)
  br label %148

148:                                              ; preds = %141, %128
  br label %149

149:                                              ; preds = %148
  %150 = load i32, i32* %4, align 4
  %151 = add nsw i32 %150, 1
  store i32 %151, i32* %4, align 4
  br label %121

152:                                              ; preds = %121
  br label %153

153:                                              ; preds = %152
  %154 = load i32, i32* %3, align 4
  %155 = add nsw i32 %154, 1
  store i32 %155, i32* %3, align 4
  br label %116

156:                                              ; preds = %116
  ret i32 0
}

; Function Attrs: argmemonly nounwind willreturn
declare void @llvm.memset.p0i8.i64(i8* nocapture writeonly, i8, i64, i1 immarg) #1

declare dso_local i32 @__isoc99_scanf(i8*, ...) #2

; Function Attrs: nounwind readonly
declare dso_local i64 @strlen(i8*) #3

declare dso_local i32 @printf(i8*, ...) #2


!llvm.module.flags = !{!0}
!llvm.ident = !{!1}

!0 = !{i32 1, !"wchar_size", i32 4}
!1 = !{!"clang version 10.0.0-4ubuntu1 "}
