; ModuleID = 'source-C-CXX/1/365.c'
source_filename = "source-C-CXX/1/365.c"
target datalayout = "e-m:e-p270:32:32-p271:32:32-p272:64:64-i64:64-f80:128-n8:16:32:64-S128"
target triple = "x86_64-pc-linux-gnu"

%struct.book = type { i32, [26 x i8] }

@.str = private unnamed_addr constant [3 x i8] c"%d\00", align 1
@.str.1 = private unnamed_addr constant [3 x i8] c"%s\00", align 1
@.str.2 = private unnamed_addr constant [4 x i8] c"%c\0A\00", align 1
@.str.3 = private unnamed_addr constant [4 x i8] c"%d\0A\00", align 1

; Function Attrs: nofree nounwind sspstrong uwtable
define dso_local i32 @main() local_unnamed_addr #0 {
  %1 = alloca i32, align 4
  %2 = alloca [26 x i32], align 16
  %3 = alloca [1000 x i32], align 16
  %4 = alloca [1000 x %struct.book], align 16
  %5 = bitcast i32* %1 to i8*
  call void @llvm.lifetime.start.p0i8(i64 4, i8* nonnull %5) #5
  %6 = bitcast [26 x i32]* %2 to i8*
  call void @llvm.lifetime.start.p0i8(i64 104, i8* nonnull %6) #5
  call void @llvm.memset.p0i8.i64(i8* noundef nonnull align 16 dereferenceable(104) %6, i8 0, i64 104, i1 false)
  %7 = bitcast [1000 x i32]* %3 to i8*
  call void @llvm.lifetime.start.p0i8(i64 4000, i8* nonnull %7) #5
  %8 = bitcast [1000 x %struct.book]* %4 to i8*
  call void @llvm.lifetime.start.p0i8(i64 32000, i8* nonnull %8) #5
  %9 = call i32 (i8*, ...) @__isoc99_scanf(i8* getelementptr inbounds ([3 x i8], [3 x i8]* @.str, i64 0, i64 0), i32* nonnull %1)
  %10 = load i32, i32* %1, align 4, !tbaa !5
  %11 = icmp sgt i32 %10, 0
  br i1 %11, label %48, label %61

12:                                               ; preds = %48
  %13 = icmp sgt i32 %58, 0
  br i1 %13, label %14, label %61

14:                                               ; preds = %12
  %15 = zext i32 %58 to i64
  br label %16

16:                                               ; preds = %14, %45
  %17 = phi i64 [ 0, %14 ], [ %46, %45 ]
  %18 = add nuw nsw i64 %17, 65
  %19 = getelementptr inbounds [26 x i32], [26 x i32]* %2, i64 0, i64 %17
  br label %38

20:                                               ; preds = %43, %27
  %21 = phi i64 [ 0, %43 ], [ %28, %27 ]
  %22 = getelementptr inbounds [1000 x %struct.book], [1000 x %struct.book]* %4, i64 0, i64 %39, i32 1, i64 %21
  %23 = load i8, i8* %22, align 1, !tbaa !9
  %24 = sext i8 %23 to i64
  %25 = and i64 %24, 4294967295
  %26 = icmp eq i64 %18, %25
  br i1 %26, label %30, label %27

27:                                               ; preds = %20
  %28 = add nuw nsw i64 %21, 1
  %29 = icmp eq i64 %28, %44
  br i1 %29, label %34, label %20, !llvm.loop !10

30:                                               ; preds = %20
  %31 = trunc i64 %21 to i32
  %32 = load i32, i32* %19, align 4, !tbaa !5
  %33 = add nsw i32 %32, 1
  store i32 %33, i32* %19, align 4, !tbaa !5
  br label %34

34:                                               ; preds = %27, %38, %30
  %35 = phi i32 [ %31, %30 ], [ 0, %38 ], [ %41, %27 ]
  %36 = add nuw nsw i64 %39, 1
  %37 = icmp eq i64 %36, %15
  br i1 %37, label %45, label %38, !llvm.loop !12

38:                                               ; preds = %16, %34
  %39 = phi i64 [ 0, %16 ], [ %36, %34 ]
  %40 = getelementptr inbounds [1000 x i32], [1000 x i32]* %3, i64 0, i64 %39
  %41 = load i32, i32* %40, align 4, !tbaa !5
  %42 = icmp sgt i32 %41, 0
  br i1 %42, label %43, label %34

43:                                               ; preds = %38
  %44 = zext i32 %41 to i64
  br label %20

45:                                               ; preds = %34
  %46 = add nuw nsw i64 %17, 1
  %47 = icmp eq i64 %46, 26
  br i1 %47, label %61, label %16, !llvm.loop !13

48:                                               ; preds = %0, %48
  %49 = phi i64 [ %57, %48 ], [ 0, %0 ]
  %50 = getelementptr inbounds [1000 x %struct.book], [1000 x %struct.book]* %4, i64 0, i64 %49, i32 0
  %51 = call i32 (i8*, ...) @__isoc99_scanf(i8* getelementptr inbounds ([3 x i8], [3 x i8]* @.str, i64 0, i64 0), i32* nonnull %50)
  %52 = getelementptr inbounds [1000 x %struct.book], [1000 x %struct.book]* %4, i64 0, i64 %49, i32 1, i64 0
  %53 = call i32 (i8*, ...) @__isoc99_scanf(i8* getelementptr inbounds ([3 x i8], [3 x i8]* @.str.1, i64 0, i64 0), i8* nonnull %52)
  %54 = call i64 @strlen(i8* noundef nonnull %52) #6
  %55 = trunc i64 %54 to i32
  %56 = getelementptr inbounds [1000 x i32], [1000 x i32]* %3, i64 0, i64 %49
  store i32 %55, i32* %56, align 4, !tbaa !5
  %57 = add nuw nsw i64 %49, 1
  %58 = load i32, i32* %1, align 4, !tbaa !5
  %59 = sext i32 %58 to i64
  %60 = icmp slt i64 %57, %59
  br i1 %60, label %48, label %12, !llvm.loop !14

61:                                               ; preds = %45, %0, %12
  %62 = phi i32 [ undef, %12 ], [ undef, %0 ], [ %35, %45 ]
  %63 = getelementptr inbounds [26 x i32], [26 x i32]* %2, i64 0, i64 0
  %64 = load i32, i32* %63, align 16, !tbaa !5
  %65 = icmp sgt i32 %64, 0
  %66 = select i1 %65, i32 %64, i32 0
  %67 = getelementptr inbounds [26 x i32], [26 x i32]* %2, i64 0, i64 1
  %68 = load i32, i32* %67, align 4, !tbaa !5
  %69 = icmp sgt i32 %68, %66
  %70 = select i1 %69, i32 %68, i32 %66
  %71 = getelementptr inbounds [26 x i32], [26 x i32]* %2, i64 0, i64 2
  %72 = load i32, i32* %71, align 8, !tbaa !5
  %73 = icmp sgt i32 %72, %70
  %74 = select i1 %73, i32 %72, i32 %70
  %75 = getelementptr inbounds [26 x i32], [26 x i32]* %2, i64 0, i64 3
  %76 = load i32, i32* %75, align 4, !tbaa !5
  %77 = icmp sgt i32 %76, %74
  %78 = select i1 %77, i32 %76, i32 %74
  %79 = getelementptr inbounds [26 x i32], [26 x i32]* %2, i64 0, i64 4
  %80 = load i32, i32* %79, align 16, !tbaa !5
  %81 = icmp sgt i32 %80, %78
  %82 = select i1 %81, i32 %80, i32 %78
  %83 = getelementptr inbounds [26 x i32], [26 x i32]* %2, i64 0, i64 5
  %84 = load i32, i32* %83, align 4, !tbaa !5
  %85 = icmp sgt i32 %84, %82
  %86 = select i1 %85, i32 %84, i32 %82
  %87 = getelementptr inbounds [26 x i32], [26 x i32]* %2, i64 0, i64 6
  %88 = load i32, i32* %87, align 8, !tbaa !5
  %89 = icmp sgt i32 %88, %86
  %90 = select i1 %89, i32 %88, i32 %86
  %91 = getelementptr inbounds [26 x i32], [26 x i32]* %2, i64 0, i64 7
  %92 = load i32, i32* %91, align 4, !tbaa !5
  %93 = icmp sgt i32 %92, %90
  %94 = select i1 %93, i32 %92, i32 %90
  %95 = getelementptr inbounds [26 x i32], [26 x i32]* %2, i64 0, i64 8
  %96 = load i32, i32* %95, align 16, !tbaa !5
  %97 = icmp sgt i32 %96, %94
  %98 = select i1 %97, i32 %96, i32 %94
  %99 = getelementptr inbounds [26 x i32], [26 x i32]* %2, i64 0, i64 9
  %100 = load i32, i32* %99, align 4, !tbaa !5
  %101 = icmp sgt i32 %100, %98
  %102 = select i1 %101, i32 %100, i32 %98
  %103 = getelementptr inbounds [26 x i32], [26 x i32]* %2, i64 0, i64 10
  %104 = load i32, i32* %103, align 8, !tbaa !5
  %105 = icmp sgt i32 %104, %102
  %106 = select i1 %105, i32 %104, i32 %102
  %107 = getelementptr inbounds [26 x i32], [26 x i32]* %2, i64 0, i64 11
  %108 = load i32, i32* %107, align 4, !tbaa !5
  %109 = icmp sgt i32 %108, %106
  %110 = select i1 %109, i32 %108, i32 %106
  %111 = getelementptr inbounds [26 x i32], [26 x i32]* %2, i64 0, i64 12
  %112 = load i32, i32* %111, align 16, !tbaa !5
  %113 = icmp sgt i32 %112, %110
  %114 = select i1 %113, i32 %112, i32 %110
  %115 = getelementptr inbounds [26 x i32], [26 x i32]* %2, i64 0, i64 13
  %116 = load i32, i32* %115, align 4, !tbaa !5
  %117 = icmp sgt i32 %116, %114
  %118 = select i1 %117, i32 %116, i32 %114
  %119 = getelementptr inbounds [26 x i32], [26 x i32]* %2, i64 0, i64 14
  %120 = load i32, i32* %119, align 8, !tbaa !5
  %121 = icmp sgt i32 %120, %118
  %122 = select i1 %121, i32 %120, i32 %118
  %123 = getelementptr inbounds [26 x i32], [26 x i32]* %2, i64 0, i64 15
  %124 = load i32, i32* %123, align 4, !tbaa !5
  %125 = icmp sgt i32 %124, %122
  %126 = select i1 %125, i32 %124, i32 %122
  %127 = getelementptr inbounds [26 x i32], [26 x i32]* %2, i64 0, i64 16
  %128 = load i32, i32* %127, align 16, !tbaa !5
  %129 = icmp sgt i32 %128, %126
  %130 = select i1 %129, i32 %128, i32 %126
  %131 = getelementptr inbounds [26 x i32], [26 x i32]* %2, i64 0, i64 17
  %132 = load i32, i32* %131, align 4, !tbaa !5
  %133 = icmp sgt i32 %132, %130
  %134 = select i1 %133, i32 %132, i32 %130
  %135 = getelementptr inbounds [26 x i32], [26 x i32]* %2, i64 0, i64 18
  %136 = load i32, i32* %135, align 8, !tbaa !5
  %137 = icmp sgt i32 %136, %134
  %138 = select i1 %137, i32 %136, i32 %134
  %139 = getelementptr inbounds [26 x i32], [26 x i32]* %2, i64 0, i64 19
  %140 = load i32, i32* %139, align 4, !tbaa !5
  %141 = icmp sgt i32 %140, %138
  %142 = select i1 %141, i32 %140, i32 %138
  %143 = getelementptr inbounds [26 x i32], [26 x i32]* %2, i64 0, i64 20
  %144 = load i32, i32* %143, align 16, !tbaa !5
  %145 = icmp sgt i32 %144, %142
  %146 = select i1 %145, i32 %144, i32 %142
  %147 = getelementptr inbounds [26 x i32], [26 x i32]* %2, i64 0, i64 21
  %148 = load i32, i32* %147, align 4, !tbaa !5
  %149 = icmp sgt i32 %148, %146
  %150 = select i1 %149, i32 %148, i32 %146
  %151 = getelementptr inbounds [26 x i32], [26 x i32]* %2, i64 0, i64 22
  %152 = load i32, i32* %151, align 8, !tbaa !5
  %153 = icmp sgt i32 %152, %150
  %154 = select i1 %153, i32 %152, i32 %150
  %155 = getelementptr inbounds [26 x i32], [26 x i32]* %2, i64 0, i64 23
  %156 = load i32, i32* %155, align 4, !tbaa !5
  %157 = icmp sgt i32 %156, %154
  %158 = select i1 %157, i32 %156, i32 %154
  %159 = getelementptr inbounds [26 x i32], [26 x i32]* %2, i64 0, i64 24
  %160 = load i32, i32* %159, align 16, !tbaa !5
  %161 = icmp sgt i32 %160, %158
  %162 = select i1 %161, i32 %160, i32 %158
  %163 = getelementptr inbounds [26 x i32], [26 x i32]* %2, i64 0, i64 25
  %164 = load i32, i32* %163, align 4, !tbaa !5
  %165 = icmp sgt i32 %164, %162
  %166 = select i1 %165, i32 %164, i32 %162
  %167 = add i32 %62, 65
  %168 = select i1 %65, i32 65, i32 %167
  %169 = select i1 %69, i32 66, i32 %168
  %170 = select i1 %73, i32 67, i32 %169
  %171 = select i1 %77, i32 68, i32 %170
  %172 = select i1 %81, i32 69, i32 %171
  %173 = select i1 %85, i32 70, i32 %172
  %174 = select i1 %89, i32 71, i32 %173
  %175 = select i1 %93, i32 72, i32 %174
  %176 = select i1 %97, i32 73, i32 %175
  %177 = select i1 %101, i32 74, i32 %176
  %178 = select i1 %105, i32 75, i32 %177
  %179 = select i1 %109, i32 76, i32 %178
  %180 = select i1 %113, i32 77, i32 %179
  %181 = select i1 %117, i32 78, i32 %180
  %182 = select i1 %121, i32 79, i32 %181
  %183 = select i1 %125, i32 80, i32 %182
  %184 = select i1 %129, i32 81, i32 %183
  %185 = select i1 %133, i32 82, i32 %184
  %186 = select i1 %137, i32 83, i32 %185
  %187 = select i1 %141, i32 84, i32 %186
  %188 = select i1 %145, i32 85, i32 %187
  %189 = select i1 %149, i32 86, i32 %188
  %190 = select i1 %153, i32 87, i32 %189
  %191 = select i1 %157, i32 88, i32 %190
  %192 = select i1 %161, i32 89, i32 %191
  %193 = select i1 %165, i32 90, i32 %192
  %194 = call i32 (i8*, ...) @printf(i8* nonnull dereferenceable(1) getelementptr inbounds ([4 x i8], [4 x i8]* @.str.2, i64 0, i64 0), i32 %193)
  %195 = call i32 (i8*, ...) @printf(i8* nonnull dereferenceable(1) getelementptr inbounds ([4 x i8], [4 x i8]* @.str.3, i64 0, i64 0), i32 %166)
  %196 = load i32, i32* %1, align 4, !tbaa !5
  %197 = icmp sgt i32 %196, 0
  br i1 %197, label %198, label %226

198:                                              ; preds = %61, %221
  %199 = phi i32 [ %222, %221 ], [ %196, %61 ]
  %200 = phi i64 [ %223, %221 ], [ 0, %61 ]
  %201 = getelementptr inbounds [1000 x i32], [1000 x i32]* %3, i64 0, i64 %200
  %202 = load i32, i32* %201, align 4, !tbaa !5
  %203 = getelementptr inbounds [1000 x %struct.book], [1000 x %struct.book]* %4, i64 0, i64 %200, i32 0
  %204 = icmp sgt i32 %202, 0
  br i1 %204, label %205, label %221

205:                                              ; preds = %198
  %206 = zext i32 %202 to i64
  br label %207

207:                                              ; preds = %205, %216
  %208 = phi i64 [ 0, %205 ], [ %217, %216 ]
  %209 = getelementptr inbounds [1000 x %struct.book], [1000 x %struct.book]* %4, i64 0, i64 %200, i32 1, i64 %208
  %210 = load i8, i8* %209, align 1, !tbaa !9
  %211 = sext i8 %210 to i32
  %212 = icmp eq i32 %193, %211
  br i1 %212, label %213, label %216

213:                                              ; preds = %207
  %214 = load i32, i32* %203, align 16, !tbaa !15
  %215 = call i32 (i8*, ...) @printf(i8* nonnull dereferenceable(1) getelementptr inbounds ([4 x i8], [4 x i8]* @.str.3, i64 0, i64 0), i32 %214)
  br label %216

216:                                              ; preds = %207, %213
  %217 = add nuw nsw i64 %208, 1
  %218 = icmp eq i64 %217, %206
  br i1 %218, label %219, label %207, !llvm.loop !17

219:                                              ; preds = %216
  %220 = load i32, i32* %1, align 4, !tbaa !5
  br label %221

221:                                              ; preds = %219, %198
  %222 = phi i32 [ %220, %219 ], [ %199, %198 ]
  %223 = add nuw nsw i64 %200, 1
  %224 = sext i32 %222 to i64
  %225 = icmp slt i64 %223, %224
  br i1 %225, label %198, label %226, !llvm.loop !18

226:                                              ; preds = %221, %61
  call void @llvm.lifetime.end.p0i8(i64 32000, i8* nonnull %8) #5
  call void @llvm.lifetime.end.p0i8(i64 4000, i8* nonnull %7) #5
  call void @llvm.lifetime.end.p0i8(i64 104, i8* nonnull %6) #5
  call void @llvm.lifetime.end.p0i8(i64 4, i8* nonnull %5) #5
  ret i32 0
}

; Function Attrs: argmemonly mustprogress nofree nosync nounwind willreturn
declare void @llvm.lifetime.start.p0i8(i64 immarg, i8* nocapture) #1

; Function Attrs: argmemonly mustprogress nofree nounwind willreturn writeonly
declare void @llvm.memset.p0i8.i64(i8* nocapture writeonly, i8, i64, i1 immarg) #2

; Function Attrs: nofree nounwind
declare noundef i32 @__isoc99_scanf(i8* nocapture noundef readonly, ...) local_unnamed_addr #3

; Function Attrs: argmemonly mustprogress nofree nounwind readonly willreturn
declare i64 @strlen(i8* nocapture) local_unnamed_addr #4

; Function Attrs: nofree nounwind
declare noundef i32 @printf(i8* nocapture noundef readonly, ...) local_unnamed_addr #3

; Function Attrs: argmemonly mustprogress nofree nosync nounwind willreturn
declare void @llvm.lifetime.end.p0i8(i64 immarg, i8* nocapture) #1


!llvm.module.flags = !{!0, !1, !2, !3}
!llvm.ident = !{!4}

!0 = !{i32 1, !"wchar_size", i32 4}
!1 = !{i32 7, !"PIC Level", i32 2}
!2 = !{i32 7, !"PIE Level", i32 2}
!3 = !{i32 7, !"uwtable", i32 1}
!4 = !{!"clang version 13.0.0"}
!5 = !{!6, !6, i64 0}
!6 = !{!"int", !7, i64 0}
!7 = !{!"omnipotent char", !8, i64 0}
!8 = !{!"Simple C/C++ TBAA"}
!9 = !{!7, !7, i64 0}
!10 = distinct !{!10, !11}
!11 = !{!"llvm.loop.mustprogress"}
!12 = distinct !{!12, !11}
!13 = distinct !{!13, !11}
!14 = distinct !{!14, !11}
!15 = !{!16, !6, i64 0}
!16 = !{!"book", !6, i64 0, !7, i64 4}
!17 = distinct !{!17, !11}
!18 = distinct !{!18, !11}
